target datalayout = "e-m:e-p270:32:32-p271:32:32-p272:64:64-i64:64-i128:128-f80:128-n8:16:32:64-S128"
target triple = "x86_64-pc-linux-gnu"

%struct._zval_struct = type { %union._zend_value, %union.anon, %union.anon.2 }
%union._zend_value = type { i64 }
%union.anon = type { i32 }
%union.anon.2 = type { i32 }
%struct._Bucket = type { %struct._zval_struct, i64, ptr }
%struct.bucketindex = type { %struct._Bucket, i32 }

; Function Attrs: nounwind uwtable
define internal void @array_bucketindex_swap(ptr noundef %0, ptr noundef %1) #0 {
  %3 = alloca ptr, align 8
  %4 = alloca ptr, align 8
  %5 = alloca ptr, align 8
  %6 = alloca ptr, align 8
  %7 = alloca %struct.bucketindex, align 8
  store ptr %0, ptr %3, align 8, !tbaa !26
  store ptr %1, ptr %4, align 8, !tbaa !26
  call void @llvm.lifetime.start.p0(i64 8, ptr %5) #17
  %8 = load ptr, ptr %3, align 8, !tbaa !26
  store ptr %8, ptr %5, align 8, !tbaa !140
  call void @llvm.lifetime.start.p0(i64 8, ptr %6) #17
  %9 = load ptr, ptr %4, align 8, !tbaa !26
  store ptr %9, ptr %6, align 8, !tbaa !140
  call void @llvm.lifetime.start.p0(i64 40, ptr %7) #17
  %10 = load ptr, ptr %5, align 8, !tbaa !140
  call void @llvm.memcpy.p0.p0.i64(ptr align 8 %7, ptr align 8 %10, i64 40, i1 false), !tbaa.struct !147
  %11 = load ptr, ptr %5, align 8, !tbaa !140
  %12 = load ptr, ptr %6, align 8, !tbaa !140
  call void @llvm.memcpy.p0.p0.i64(ptr align 8 %11, ptr align 8 %12, i64 40, i1 false), !tbaa.struct !147
  %13 = load ptr, ptr %6, align 8, !tbaa !140
  call void @llvm.memcpy.p0.p0.i64(ptr align 8 %13, ptr align 8 %7, i64 40, i1 false), !tbaa.struct !147
  call void @llvm.lifetime.end.p0(i64 40, ptr %7) #17
  call void @llvm.lifetime.end.p0(i64 8, ptr %6) #17
  call void @llvm.lifetime.end.p0(i64 8, ptr %5) #17
  ret void
}