; Function Attrs: mustprogress nofree norecurse nosync nounwind willreturn memory(argmem: readwrite) uwtable
define internal void @array_bucketindex_swap(ptr noundef captures(none) %0, ptr noundef captures(none) %1) #12 {
  %3 = alloca %struct.bucketindex, align 8
  call void @llvm.lifetime.start.p0(i64 40, ptr nonnull %3)
  call void @llvm.memcpy.p0.p0.i64(ptr noundef nonnull align 8 dereferenceable(40) %3, ptr noundef nonnull align 8 dereferenceable(40) %0, i64 40, i1 false), !tbaa.struct !143
  tail call void @llvm.memcpy.p0.p0.i64(ptr noundef nonnull align 8 dereferenceable(40) %0, ptr noundef nonnull align 8 dereferenceable(40) %1, i64 40, i1 false), !tbaa.struct !143
  call void @llvm.memcpy.p0.p0.i64(ptr noundef nonnull align 8 dereferenceable(40) %1, ptr noundef nonnull align 8 dereferenceable(40) %3, i64 40, i1 false), !tbaa.struct !143
  call void @llvm.lifetime.end.p0(i64 40, ptr nonnull %3)
  ret void
}